target datalayout = "e-m:e-p270:32:32-p271:32:32-p272:64:64-i64:64-i128:128-f80:128-n8:16:32:64-S128"
target triple = "x86_64-pc-linux-gnu"

%class.ReservedSpace = type <{ ptr, i64, i64, i64, i64, i8, [3 x i8], i32, i8, [7 x i8] }>
%class.VirtualSpace = type { ptr, ptr, ptr, ptr, i8, i8, ptr, ptr, ptr, ptr, ptr, ptr, i64, i64, i64 }
%class.DumpRegion = type { ptr, ptr, ptr, ptr, i64, i8, ptr, ptr }
%"class.ArchiveBuilder::OtherROAllocMark" = type { ptr }
%class.WriteClosure = type { %class.SerializeClosure, ptr }
%class.SerializeClosure = type { ptr }
%class.ArchiveBuilder = type { ptr, ptr, ptr, ptr, i32, i64, ptr, ptr, ptr, ptr, ptr, ptr, i64, %class.ReservedSpace, %class.VirtualSpace, %class.DumpRegion, %class.DumpRegion, %class.CHeapBitMap, %class.CHeapBitMap, %class.CHeapBitMap, %"class.ArchiveBuilder::SourceObjList", %"class.ArchiveBuilder::SourceObjList", %class.ResizeableResourceHashtable.6, %class.ResizeableResourceHashtable.10, ptr, ptr, i32, %class.DumpAllocStats, i64, i64, i64 }
%class.CHeapBitMap = type <{ %class.GrowableBitMap, i8, [7 x i8] }>
%class.GrowableBitMap = type { %class.BitMap }
%class.BitMap = type { ptr, i64 }
%"class.ArchiveBuilder::SourceObjList" = type { i64, ptr, %class.CHeapBitMap }
%class.ResizeableResourceHashtable.6 = type { %class.ResourceHashtableBase.base.9, i32 }
%class.ResourceHashtableBase.base.9 = type <{ %class.ResizeableResourceHashtableStorage.8, i32 }>
%class.ResizeableResourceHashtableStorage.8 = type { i32, ptr }
%class.ResizeableResourceHashtable.10 = type { %class.ResourceHashtableBase.base.13, i32 }
%class.ResourceHashtableBase.base.13 = type <{ %class.ResizeableResourceHashtableStorage.12, i32 }>
%class.ResizeableResourceHashtableStorage.12 = type { i32, ptr }
%class.DumpAllocStats = type { %class.CompactHashtableStats, %class.CompactHashtableStats, [2 x [23 x i32]], [2 x [23 x i32]], i32, i32, i32, i32, i32, i32, i32, i32, i32 }
%class.CompactHashtableStats = type { i32, i32, i32, i32 }

@_ZN14ArchiveBuilder8_currentE = external global ptr, align 8
@_ZTV12WriteClosure = external unnamed_addr constant { [9 x ptr] }, align 8

; Function Attrs: mustprogress nounwind uwtable
define linkonce_odr hidden void @_ZN16SerializeClosureC2Ev(ptr noundef nonnull align 8 dereferenceable(8) %0) unnamed_addr #1 comdat align 2 {
  %2 = alloca ptr, align 8
  store ptr %0, ptr %2, align 8
  %3 = load ptr, ptr %2, align 8
  store ptr getelementptr inbounds inrange(-16, 56) ({ [9 x ptr] }, ptr @_ZTV16SerializeClosure, i32 0, i32 0, i32 2), ptr %3, align 8
  ret void
}

; Function Attrs: mustprogress nounwind uwtable
define linkonce_odr hidden void @_ZN12WriteClosureC2EP10DumpRegion(ptr noundef nonnull align 8 dereferenceable(16) %0, ptr noundef %1) unnamed_addr #1 comdat align 2 {
  %3 = alloca ptr, align 8
  %4 = alloca ptr, align 8
  store ptr %0, ptr %3, align 8
  store ptr %1, ptr %4, align 8
  %5 = load ptr, ptr %3, align 8
  call void @_ZN16SerializeClosureC2Ev(ptr noundef nonnull align 8 dereferenceable(8) %5) #4
  store ptr getelementptr inbounds inrange(-16, 56) ({ [9 x ptr] }, ptr @_ZTV12WriteClosure, i32 0, i32 0, i32 2), ptr %5, align 8
  %6 = load ptr, ptr %4, align 8
  %7 = getelementptr inbounds %class.WriteClosure, ptr %5, i32 0, i32 1
  store ptr %6, ptr %7, align 8
  ret void
}

; Function Attrs: mustprogress nounwind uwtable
define linkonce_odr hidden noundef ptr @_ZNK10DumpRegion3topEv(ptr noundef nonnull align 8 dereferenceable(64) %0) #1 comdat align 2 {
  %2 = alloca ptr, align 8
  store ptr %0, ptr %2, align 8
  %3 = load ptr, ptr %2, align 8
  %4 = getelementptr inbounds %class.DumpRegion, ptr %3, i32 0, i32 2
  %5 = load ptr, ptr %4, align 8
  ret ptr %5
}

; Function Attrs: mustprogress nounwind uwtable
define linkonce_odr hidden noundef ptr @_ZN14ArchiveBuilder9ro_regionEv(ptr noundef nonnull align 8 dereferenceable(1080) %0) #1 comdat align 2 {
  %2 = alloca ptr, align 8
  store ptr %0, ptr %2, align 8
  %3 = load ptr, ptr %2, align 8
  %4 = getelementptr inbounds %class.ArchiveBuilder, ptr %3, i32 0, i32 16
  ret ptr %4
}

; Function Attrs: mustprogress nounwind uwtable
define linkonce_odr hidden noundef ptr @_ZN14ArchiveBuilder7currentEv() #1 comdat align 2 {
  %1 = load ptr, ptr @_ZN14ArchiveBuilder8_currentE, align 8
  ret ptr %1
}

; Function Attrs: mustprogress nounwind uwtable
define linkonce_odr hidden void @_ZN14ArchiveBuilder16OtherROAllocMarkC2Ev(ptr noundef nonnull align 8 dereferenceable(8) %0) unnamed_addr #1 comdat align 2 {
  %2 = alloca ptr, align 8
  store ptr %0, ptr %2, align 8
  %3 = load ptr, ptr %2, align 8
  %4 = load ptr, ptr @_ZN14ArchiveBuilder8_currentE, align 8
  %5 = getelementptr inbounds %class.ArchiveBuilder, ptr %4, i32 0, i32 16
  %6 = call noundef ptr @_ZNK10DumpRegion3topEv(ptr noundef nonnull align 8 dereferenceable(64) %5)
  %7 = getelementptr inbounds %"class.ArchiveBuilder::OtherROAllocMark", ptr %3, i32 0, i32 0
  store ptr %6, ptr %7, align 8
  ret void
}

; Function Attrs: mustprogress nounwind uwtable
define hidden noundef ptr @_ZN26VM_PopulateDumpSharedSpace21dump_read_only_tablesEv(ptr noundef nonnull align 8 dereferenceable(104) %0) #1 align 2 {
  %2 = alloca ptr, align 8
  %3 = alloca %"class.ArchiveBuilder::OtherROAllocMark", align 8
  %4 = alloca ptr, align 8
  %5 = alloca ptr, align 8
  %6 = alloca %class.WriteClosure, align 8
  store ptr %0, ptr %2, align 8
  call void @_ZN14ArchiveBuilder16OtherROAllocMarkC2Ev(ptr noundef nonnull align 8 dereferenceable(8) %3)
  call void @_ZN22SystemDictionaryShared16write_to_archiveEb(i1 noundef zeroext true)
  call void @_ZN18LambdaFormInvokers28dump_static_archive_invokersEv()
  call void @_ZN7Modules21dump_main_module_nameEv()
  %7 = call noundef ptr @_ZN14ArchiveBuilder7currentEv()
  %8 = call noundef ptr @_ZN14ArchiveBuilder9ro_regionEv(ptr noundef nonnull align 8 dereferenceable(1080) %7)
  store ptr %8, ptr %4, align 8
  %9 = load ptr, ptr %4, align 8
  %10 = call noundef ptr @_ZNK10DumpRegion3topEv(ptr noundef nonnull align 8 dereferenceable(64) %9)
  store ptr %10, ptr %5, align 8
  %11 = load ptr, ptr %4, align 8
  call void @_ZN12WriteClosureC2EP10DumpRegion(ptr noundef nonnull align 8 dereferenceable(16) %6, ptr noundef %11)
  call void @_ZN15MetaspaceShared9serializeEP16SerializeClosure(ptr noundef %6)
  %12 = load ptr, ptr %5, align 8
  call void @_ZN14ArchiveBuilder16OtherROAllocMarkD1Ev(ptr noundef nonnull align 8 dereferenceable(8) %3) #4
  ret ptr %12
}