; Function Attrs: mustprogress nounwind uwtable
define hidden noundef ptr @_ZN26VM_PopulateDumpSharedSpace21dump_read_only_tablesEv(ptr nocapture noundef nonnull readnone align 8 dereferenceable(104) %0) local_unnamed_addr #3 align 2 {
  %2 = alloca %"class.ArchiveBuilder::OtherROAllocMark", align 8
  %3 = alloca %class.WriteClosure, align 8
  %4 = load ptr, ptr @_ZN14ArchiveBuilder8_currentE, align 8
  %5 = getelementptr inbounds i8, ptr %4, i64 352
  %6 = load ptr, ptr %5, align 8
  store ptr %6, ptr %2, align 8
  tail call void @_ZN22SystemDictionaryShared16write_to_archiveEb(i1 noundef zeroext true) #15
  tail call void @_ZN18LambdaFormInvokers28dump_static_archive_invokersEv() #15
  tail call void @_ZN7Modules21dump_main_module_nameEv() #15
  %7 = load ptr, ptr @_ZN14ArchiveBuilder8_currentE, align 8
  %8 = getelementptr inbounds i8, ptr %7, i64 336
  %9 = getelementptr inbounds i8, ptr %7, i64 352
  %10 = load ptr, ptr %9, align 8
  store ptr getelementptr inbounds inrange(-16, 56) (i8, ptr @_ZTV12WriteClosure, i64 16), ptr %3, align 8
  %11 = getelementptr inbounds i8, ptr %3, i64 8
  store ptr %8, ptr %11, align 8
  call void @_ZN15MetaspaceShared9serializeEP16SerializeClosure(ptr noundef nonnull %3)
  call void @_ZN14ArchiveBuilder16OtherROAllocMarkD1Ev(ptr noundef nonnull align 8 dereferenceable(8) %2) #15
  ret ptr %10
}